target datalayout = "e-m:e-p270:32:32-p271:32:32-p272:64:64-i64:64-i128:128-f80:128-n8:16:32:64-S128"
target triple = "x86_64-pc-linux-gnu"

; Function Attrs: inlinehint mustprogress nounwind uwtable
define linkonce_odr dso_local noundef float @_ZSt4sqrtf(float noundef %0) #5 comdat {
  %2 = alloca float, align 4
  store float %0, ptr %2, align 4, !tbaa !14
  %3 = load float, ptr %2, align 4, !tbaa !14
  %4 = call float @sqrtf(float noundef %3) #8, !tbaa !9
  ret float %4
}

; Function Attrs: mustprogress uwtable
define dso_local void @_Z5CSqrtffRfS_(float noundef %0, float noundef %1, ptr noundef nonnull align 4 dereferenceable(4) %2, ptr noundef nonnull align 4 dereferenceable(4) %3) #2 {
  %5 = alloca float, align 4
  %6 = alloca float, align 4
  %7 = alloca ptr, align 8
  %8 = alloca ptr, align 8
  %9 = alloca float, align 4
  store float %0, ptr %5, align 4, !tbaa !14
  store float %1, ptr %6, align 4, !tbaa !14
  store ptr %2, ptr %7, align 8, !tbaa !12
  store ptr %3, ptr %8, align 8, !tbaa !12
  call void @llvm.lifetime.start.p0(i64 4, ptr %9) #8
  %10 = load float, ptr %5, align 4, !tbaa !14
  %11 = load float, ptr %5, align 4, !tbaa !14
  %12 = load float, ptr %6, align 4, !tbaa !14
  %13 = load float, ptr %6, align 4, !tbaa !14
  %14 = fmul float %12, %13
  %15 = call float @llvm.fmuladd.f32(float %10, float %11, float %14)
  %16 = call noundef float @_ZSt4sqrtf(float noundef %15)
  store float %16, ptr %9, align 4, !tbaa !14
  %17 = load float, ptr %6, align 4, !tbaa !14
  %18 = fcmp oeq float %17, 0.000000e+00
  br i1 %18, label %19, label %33

19:                                               ; preds = %4
  %20 = load float, ptr %9, align 4, !tbaa !14
  %21 = call noundef float @_ZSt4sqrtf(float noundef %20)
  store float %21, ptr %9, align 4, !tbaa !14
  %22 = load float, ptr %5, align 4, !tbaa !14
  %23 = fcmp oge float %22, 0.000000e+00
  br i1 %23, label %24, label %28

24:                                               ; preds = %19
  %25 = load float, ptr %9, align 4, !tbaa !14
  %26 = load ptr, ptr %7, align 8, !tbaa !12
  store float %25, ptr %26, align 4, !tbaa !14
  %27 = load ptr, ptr %8, align 8, !tbaa !12
  store float 0.000000e+00, ptr %27, align 4, !tbaa !14
  br label %32

28:                                               ; preds = %19
  %29 = load ptr, ptr %7, align 8, !tbaa !12
  store float 0.000000e+00, ptr %29, align 4, !tbaa !14
  %30 = load float, ptr %9, align 4, !tbaa !14
  %31 = load ptr, ptr %8, align 8, !tbaa !12
  store float %30, ptr %31, align 4, !tbaa !14
  br label %32

32:                                               ; preds = %28, %24
  br label %51

33:                                               ; preds = %4
  %34 = load float, ptr %5, align 4, !tbaa !14
  %35 = load float, ptr %9, align 4, !tbaa !14
  %36 = fadd float %34, %35
  %37 = fpext float %36 to double
  %38 = fmul double 5.000000e-01, %37
  %39 = call double @sqrt(double noundef %38) #8, !tbaa !9
  %40 = fptrunc double %39 to float
  %41 = load ptr, ptr %7, align 8, !tbaa !12
  store float %40, ptr %41, align 4, !tbaa !14
  %42 = load float, ptr %6, align 4, !tbaa !14
  %43 = fpext float %42 to double
  %44 = fmul double 5.000000e-01, %43
  %45 = load ptr, ptr %7, align 8, !tbaa !12
  %46 = load float, ptr %45, align 4, !tbaa !14
  %47 = fpext float %46 to double
  %48 = fdiv double %44, %47
  %49 = fptrunc double %48 to float
  %50 = load ptr, ptr %8, align 8, !tbaa !12
  store float %49, ptr %50, align 4, !tbaa !14
  br label %51

51:                                               ; preds = %33, %32
  call void @llvm.lifetime.end.p0(i64 4, ptr %9) #8
  ret void
}