; Function Attrs: mustprogress nofree nounwind willreturn memory(write) uwtable
define dso_local void @_Z5CSqrtffRfS_(float noundef %0, float noundef %1, ptr noundef nonnull writeonly align 4 captures(none) dereferenceable(4) initializes((0, 4)) %2, ptr noundef nonnull writeonly align 4 captures(none) dereferenceable(4) initializes((0, 4)) %3) local_unnamed_addr #0 {
  %5 = fmul float %1, %1
  %6 = tail call float @llvm.fmuladd.f32(float %0, float %0, float %5)
  %sqrt = tail call float @llvm.sqrt.f32(float %6)
  %7 = fcmp oeq float %1, 0.000000e+00
  br i1 %7, label %8, label %12

8:                                                ; preds = %4
  %sqrt19 = tail call float @llvm.sqrt.f32(float %sqrt)
  %9 = fcmp ult float %0, 0.000000e+00
  br i1 %9, label %11, label %10

10:                                               ; preds = %8
  store float %sqrt19, ptr %2, align 4, !tbaa !8
  br label %23

11:                                               ; preds = %8
  store float 0.000000e+00, ptr %2, align 4, !tbaa !8
  br label %23

12:                                               ; preds = %4
  %13 = fadd float %0, %sqrt
  %14 = fpext float %13 to double
  %15 = fmul double %14, 5.000000e-01
  %16 = tail call double @sqrt(double noundef %15) #7, !tbaa !4
  %17 = fptrunc double %16 to float
  store float %17, ptr %2, align 4, !tbaa !8
  %18 = fpext float %1 to double
  %19 = fmul double %18, 5.000000e-01
  %20 = fpext float %17 to double
  %21 = fdiv double %19, %20
  %22 = fptrunc double %21 to float
  br label %23

23:                                               ; preds = %10, %11, %12
  %.sink = phi float [ 0.000000e+00, %10 ], [ %sqrt19, %11 ], [ %22, %12 ]
  store float %.sink, ptr %3, align 4, !tbaa !8
  ret void
}